target datalayout = "e-m:e-p270:32:32-p271:32:32-p272:64:64-i64:64-i128:128-f80:128-n8:16:32:64-S128"
target triple = "x86_64-pc-linux-gnu"

%struct.formnode = type { i16, i16, i16, i32, i32, i32, i32, i16, i16, i16, i32, ptr, ptr, ptr, ptr, ptr, ptr, ptr, ptr, ptr, ptr, ptr }

; Function Attrs: nounwind uwtable
define internal i32 @IFN_Up_Character(ptr noundef %0) #0 {
  %2 = alloca i32, align 4
  %3 = alloca ptr, align 8
  store ptr %0, ptr %3, align 8, !tbaa !4
  %4 = load ptr, ptr %3, align 8, !tbaa !4
  %5 = getelementptr inbounds nuw %struct.formnode, ptr %4, i32 0, i32 3
  %6 = load i32, ptr %5, align 8, !tbaa !21
  %7 = add nsw i32 %6, -1
  store i32 %7, ptr %5, align 8, !tbaa !21
  %8 = icmp slt i32 %7, 0
  br i1 %8, label %9, label %14

9:                                                ; preds = %1
  %10 = load ptr, ptr %3, align 8, !tbaa !4
  %11 = getelementptr inbounds nuw %struct.formnode, ptr %10, i32 0, i32 3
  %12 = load i32, ptr %11, align 8, !tbaa !21
  %13 = add nsw i32 %12, 1
  store i32 %13, ptr %11, align 8, !tbaa !21
  store i32 -12, ptr %2, align 4
  br label %15

14:                                               ; preds = %1
  store i32 0, ptr %2, align 4
  br label %15

15:                                               ; preds = %14, %9
  %16 = load i32, ptr %2, align 4
  ret i32 %16
}