; Function Attrs: mustprogress nofree norecurse nosync nounwind willreturn memory(argmem: readwrite) uwtable
define internal range(i32 -12, 1) i32 @IFN_Up_Character(ptr noundef captures(none) %0) #8 {
  %2 = getelementptr inbounds nuw i8, ptr %0, i64 8
  %3 = load i32, ptr %2, align 8, !tbaa !17
  %4 = icmp sgt i32 %3, 0
  %5 = sext i1 %4 to i32
  %spec.store.select = add nsw i32 %3, %5
  store i32 %spec.store.select, ptr %2, align 8
  %spec.select = select i1 %4, i32 0, i32 -12
  ret i32 %spec.select
}